target datalayout = "e-m:e-p270:32:32-p271:32:32-p272:64:64-i64:64-i128:128-f80:128-n8:16:32:64-S128"
target triple = "x86_64-pc-linux-gnu"

%class.expr_map = type { ptr, i8, [7 x i8], %class.obj_map, %class.obj_map.0 }
%class.obj_map = type { %class.core_hashtable }
%class.core_hashtable = type <{ ptr, i32, i32, i32, [4 x i8] }>
%class.obj_map.0 = type { %class.core_hashtable.1 }
%class.core_hashtable.1 = type <{ ptr, i32, i32, i32, [4 x i8] }>

; Function Attrs: mustprogress uwtable
define linkonce_odr hidden void @_ZN7obj_mapI4exprP3appE8finalizeEv(ptr noundef nonnull align 8 dereferenceable(24) %0) #4 comdat align 2 {
  %2 = alloca ptr, align 8
  store ptr %0, ptr %2, align 8, !tbaa !88
  %3 = load ptr, ptr %2, align 8
  %4 = getelementptr inbounds nuw %class.obj_map.0, ptr %3, i32 0, i32 0
  call void @_ZN14core_hashtableIN7obj_mapI4exprP3appE13obj_map_entryE8obj_hashINS4_8key_dataEE10default_eqIS7_EE8finalizeEv(ptr noundef nonnull align 8 dereferenceable(20) %4)
  ret void
}

; Function Attrs: mustprogress uwtable
define linkonce_odr hidden void @_ZN7obj_mapI4exprPS0_E8finalizeEv(ptr noundef nonnull align 8 dereferenceable(24) %0) #4 comdat align 2 {
  %2 = alloca ptr, align 8
  store ptr %0, ptr %2, align 8, !tbaa !86
  %3 = load ptr, ptr %2, align 8
  %4 = getelementptr inbounds nuw %class.obj_map, ptr %3, i32 0, i32 0
  call void @_ZN14core_hashtableIN7obj_mapI4exprPS1_E13obj_map_entryE8obj_hashINS3_8key_dataEE10default_eqIS6_EE8finalizeEv(ptr noundef nonnull align 8 dereferenceable(20) %4)
  ret void
}

; Function Attrs: mustprogress uwtable
define hidden void @_ZN8expr_map5resetEv(ptr noundef nonnull align 8 dereferenceable(64) %0) #4 align 2 {
  %2 = alloca ptr, align 8
  store ptr %0, ptr %2, align 8, !tbaa !3
  %3 = load ptr, ptr %2, align 8
  %4 = getelementptr inbounds nuw %class.expr_map, ptr %3, i32 0, i32 0
  %5 = load ptr, ptr %4, align 8, !tbaa !93
  %6 = getelementptr inbounds nuw %class.expr_map, ptr %3, i32 0, i32 4
  call void @_Z14dec_ref_valuesI11ast_manager7obj_mapI4exprP3appEEvRT_RT0_(ptr noundef nonnull align 8 dereferenceable(976) %5, ptr noundef nonnull align 8 dereferenceable(24) %6)
  %7 = getelementptr inbounds nuw %class.expr_map, ptr %3, i32 0, i32 0
  %8 = load ptr, ptr %7, align 8, !tbaa !93
  %9 = getelementptr inbounds nuw %class.expr_map, ptr %3, i32 0, i32 3
  call void @_Z18dec_ref_key_valuesI11ast_manager7obj_mapI4exprPS2_EEvRT_RT0_(ptr noundef nonnull align 8 dereferenceable(976) %8, ptr noundef nonnull align 8 dereferenceable(24) %9)
  ret void
}

; Function Attrs: mustprogress uwtable
define hidden void @_ZN8expr_map5flushEv(ptr noundef nonnull align 8 dereferenceable(64) %0) #4 align 2 {
  %2 = alloca ptr, align 8
  store ptr %0, ptr %2, align 8, !tbaa !3
  %3 = load ptr, ptr %2, align 8
  call void @_ZN8expr_map5resetEv(ptr noundef nonnull align 8 dereferenceable(64) %3)
  %4 = getelementptr inbounds nuw %class.expr_map, ptr %3, i32 0, i32 3
  call void @_ZN7obj_mapI4exprPS0_E8finalizeEv(ptr noundef nonnull align 8 dereferenceable(24) %4)
  %5 = getelementptr inbounds nuw %class.expr_map, ptr %3, i32 0, i32 4
  call void @_ZN7obj_mapI4exprP3appE8finalizeEv(ptr noundef nonnull align 8 dereferenceable(24) %5)
  ret void
}