; Function Attrs: mustprogress uwtable
define hidden void @_ZN8expr_map5flushEv(ptr noundef nonnull align 8 dereferenceable(64) %0) local_unnamed_addr #3 align 2 {
  %2 = load ptr, ptr %0, align 8, !tbaa !92
  %3 = getelementptr inbounds nuw i8, ptr %0, i64 40
  tail call void @_Z14dec_ref_valuesI11ast_manager7obj_mapI4exprP3appEEvRT_RT0_(ptr noundef nonnull align 8 dereferenceable(976) %2, ptr noundef nonnull align 8 dereferenceable(24) %3)
  %4 = load ptr, ptr %0, align 8, !tbaa !92
  %5 = getelementptr inbounds nuw i8, ptr %0, i64 16
  tail call void @_Z18dec_ref_key_valuesI11ast_manager7obj_mapI4exprPS2_EEvRT_RT0_(ptr noundef nonnull align 8 dereferenceable(976) %4, ptr noundef nonnull align 8 dereferenceable(24) %5)
  tail call void @_ZN14core_hashtableIN7obj_mapI4exprPS1_E13obj_map_entryE8obj_hashINS3_8key_dataEE10default_eqIS6_EE8finalizeEv(ptr noundef nonnull align 8 dereferenceable(24) %5)
  tail call void @_ZN14core_hashtableIN7obj_mapI4exprP3appE13obj_map_entryE8obj_hashINS4_8key_dataEE10default_eqIS7_EE8finalizeEv(ptr noundef nonnull align 8 dereferenceable(24) %3)
  ret void
}